target datalayout = "e-m:e-p270:32:32-p271:32:32-p272:64:64-i64:64-i128:128-f80:128-n8:16:32:64-S128"
target triple = "x86_64-pc-linux-gnu"

%struct.sentinelState = type { [41 x i8], i64, ptr, i32, i32, i64, i64, ptr, ptr, i32, i64, i32, ptr, ptr, i32, i32 }
%struct.sentinelRedisInstance = type { i32, ptr, ptr, i64, ptr, ptr, i64, i64, i64, i64, i64, i64, i64, i64, i64, ptr, i32, i64, i64, ptr, ptr, i32, i32, ptr, ptr, i64, i32, i32, i64, ptr, ptr, i32, i32, i64, ptr, i64, i64, i32, i64, i64, i64, i64, ptr, ptr, ptr, ptr }
%struct.dict = type { ptr, [2 x ptr], [2 x i64], i64, i16, [2 x i8], i16, [0 x ptr] }

@sentinel = dso_local global %struct.sentinelState zeroinitializer, align 8
@.str.21 = private unnamed_addr constant [11 x i8] c"sentinel.c\00", align 1
@.str.415 = private unnamed_addr constant [11 x i8] c"de != NULL\00", align 1
@.str.416 = private unnamed_addr constant [54 x i8] c"master->flags & (SRI_O_DOWN|SRI_FAILOVER_IN_PROGRESS)\00", align 1

; Function Attrs: nounwind uwtable
define dso_local i32 @sentinelLeaderIncr(ptr noundef %0, ptr noundef %1) #0 {
  %3 = alloca i32, align 4
  %4 = alloca ptr, align 8
  %5 = alloca ptr, align 8
  %6 = alloca ptr, align 8
  %7 = alloca ptr, align 8
  %8 = alloca i64, align 8
  %9 = alloca i32, align 4
  store ptr %0, ptr %4, align 8, !tbaa !5
  store ptr %1, ptr %5, align 8, !tbaa !93
  call void @llvm.lifetime.start.p0(i64 8, ptr %6) #16
  call void @llvm.lifetime.start.p0(i64 8, ptr %7) #16
  call void @llvm.lifetime.start.p0(i64 8, ptr %8) #16
  %10 = load ptr, ptr %4, align 8, !tbaa !5
  %11 = load ptr, ptr %5, align 8, !tbaa !93
  %12 = call ptr @dictAddRaw(ptr noundef %10, ptr noundef %11, ptr noundef %6)
  store ptr %12, ptr %7, align 8, !tbaa !89
  %13 = load ptr, ptr %6, align 8, !tbaa !89
  %14 = icmp ne ptr %13, null
  br i1 %14, label %15, label %24

15:                                               ; preds = %2
  %16 = load ptr, ptr %6, align 8, !tbaa !89
  %17 = call i64 @dictGetUnsignedIntegerVal(ptr noundef %16)
  store i64 %17, ptr %8, align 8, !tbaa !205
  %18 = load ptr, ptr %6, align 8, !tbaa !89
  %19 = load i64, ptr %8, align 8, !tbaa !205
  %20 = add i64 %19, 1
  call void @dictSetUnsignedIntegerVal(ptr noundef %18, i64 noundef %20)
  %21 = load i64, ptr %8, align 8, !tbaa !205
  %22 = add i64 %21, 1
  %23 = trunc i64 %22 to i32
  store i32 %23, ptr %3, align 4
  store i32 1, ptr %9, align 4
  br label %38

24:                                               ; preds = %2
  %25 = load ptr, ptr %7, align 8, !tbaa !89
  %26 = icmp ne ptr %25, null
  %27 = xor i1 %26, true
  %28 = xor i1 %27, true
  %29 = zext i1 %28 to i32
  %30 = sext i32 %29 to i64
  %31 = call i64 @llvm.expect.i64(i64 %30, i64 1)
  %32 = icmp ne i64 %31, 0
  br i1 %32, label %33, label %34

33:                                               ; preds = %24
  br label %36

34:                                               ; preds = %24
  call void @_serverAssert(ptr noundef @.str.415, ptr noundef @.str.21, i32 noundef 4772)
  call void @abort() #15
  unreachable

35:                                               ; No predecessors!
  br label %36

36:                                               ; preds = %35, %33
  %37 = load ptr, ptr %7, align 8, !tbaa !89
  call void @dictSetUnsignedIntegerVal(ptr noundef %37, i64 noundef 1)
  store i32 1, ptr %3, align 4
  store i32 1, ptr %9, align 4
  br label %38

38:                                               ; preds = %36, %15
  call void @llvm.lifetime.end.p0(i64 8, ptr %8) #16
  call void @llvm.lifetime.end.p0(i64 8, ptr %7) #16
  call void @llvm.lifetime.end.p0(i64 8, ptr %6) #16
  %39 = load i32, ptr %3, align 4
  ret i32 %39
}

; Function Attrs: nounwind uwtable
define dso_local ptr @sentinelGetLeader(ptr noundef %0, i64 noundef %1) #0 {
  %3 = alloca ptr, align 8
  %4 = alloca i64, align 8
  %5 = alloca ptr, align 8
  %6 = alloca ptr, align 8
  %7 = alloca ptr, align 8
  %8 = alloca i32, align 4
  %9 = alloca i32, align 4
  %10 = alloca ptr, align 8
  %11 = alloca ptr, align 8
  %12 = alloca i64, align 8
  %13 = alloca i64, align 8
  %14 = alloca ptr, align 8
  %15 = alloca i64, align 8
  %16 = alloca i64, align 8
  store ptr %0, ptr %3, align 8, !tbaa !11
  store i64 %1, ptr %4, align 8, !tbaa !205
  call void @llvm.lifetime.start.p0(i64 8, ptr %5) #16
  call void @llvm.lifetime.start.p0(i64 8, ptr %6) #16
  call void @llvm.lifetime.start.p0(i64 8, ptr %7) #16
  call void @llvm.lifetime.start.p0(i64 4, ptr %8) #16
  store i32 0, ptr %8, align 4, !tbaa !82
  call void @llvm.lifetime.start.p0(i64 4, ptr %9) #16
  call void @llvm.lifetime.start.p0(i64 8, ptr %10) #16
  call void @llvm.lifetime.start.p0(i64 8, ptr %11) #16
  store ptr null, ptr %11, align 8, !tbaa !93
  call void @llvm.lifetime.start.p0(i64 8, ptr %12) #16
  call void @llvm.lifetime.start.p0(i64 8, ptr %13) #16
  store i64 0, ptr %13, align 8, !tbaa !205
  %17 = load ptr, ptr %3, align 8, !tbaa !11
  %18 = getelementptr inbounds nuw %struct.sentinelRedisInstance, ptr %17, i32 0, i32 0
  %19 = load i32, ptr %18, align 8, !tbaa !34
  %20 = and i32 %19, 80
  %21 = icmp ne i32 %20, 0
  %22 = xor i1 %21, true
  %23 = xor i1 %22, true
  %24 = zext i1 %23 to i32
  %25 = sext i32 %24 to i64
  %26 = call i64 @llvm.expect.i64(i64 %25, i64 1)
  %27 = icmp ne i64 %26, 0
  br i1 %27, label %28, label %29

28:                                               ; preds = %2
  br label %31

29:                                               ; preds = %2
  call void @_serverAssert(ptr noundef @.str.416, ptr noundef @.str.21, i32 noundef 4794)
  call void @abort() #15
  unreachable

30:                                               ; No predecessors!
  br label %31

31:                                               ; preds = %30, %28
  %32 = call ptr @dictCreate(ptr noundef @leaderVotesDictType)
  store ptr %32, ptr %5, align 8, !tbaa !5
  %33 = load ptr, ptr %3, align 8, !tbaa !11
  %34 = getelementptr inbounds nuw %struct.sentinelRedisInstance, ptr %33, i32 0, i32 19
  %35 = load ptr, ptr %34, align 8, !tbaa !13
  %36 = getelementptr inbounds nuw %struct.dict, ptr %35, i32 0, i32 2
  %37 = getelementptr inbounds [2 x i64], ptr %36, i64 0, i64 0
  %38 = load i64, ptr %37, align 8, !tbaa !205
  %39 = load ptr, ptr %3, align 8, !tbaa !11
  %40 = getelementptr inbounds nuw %struct.sentinelRedisInstance, ptr %39, i32 0, i32 19
  %41 = load ptr, ptr %40, align 8, !tbaa !13
  %42 = getelementptr inbounds nuw %struct.dict, ptr %41, i32 0, i32 2
  %43 = getelementptr inbounds [2 x i64], ptr %42, i64 0, i64 1
  %44 = load i64, ptr %43, align 8, !tbaa !205
  %45 = add i64 %38, %44
  %46 = add i64 %45, 1
  %47 = trunc i64 %46 to i32
  store i32 %47, ptr %8, align 4, !tbaa !82
  %48 = load ptr, ptr %3, align 8, !tbaa !11
  %49 = getelementptr inbounds nuw %struct.sentinelRedisInstance, ptr %48, i32 0, i32 19
  %50 = load ptr, ptr %49, align 8, !tbaa !13
  %51 = call ptr @dictGetIterator(ptr noundef %50)
  store ptr %51, ptr %6, align 8, !tbaa !87
  br label %52

52:                                               ; preds = %75, %31
  %53 = load ptr, ptr %6, align 8, !tbaa !87
  %54 = call ptr @dictNext(ptr noundef %53)
  store ptr %54, ptr %7, align 8, !tbaa !89
  %55 = icmp ne ptr %54, null
  br i1 %55, label %56, label %76

56:                                               ; preds = %52
  call void @llvm.lifetime.start.p0(i64 8, ptr %14) #16
  %57 = load ptr, ptr %7, align 8, !tbaa !89
  %58 = call ptr @dictGetVal(ptr noundef %57)
  store ptr %58, ptr %14, align 8, !tbaa !11
  %59 = load ptr, ptr %14, align 8, !tbaa !11
  %60 = getelementptr inbounds nuw %struct.sentinelRedisInstance, ptr %59, i32 0, i32 34
  %61 = load ptr, ptr %60, align 8, !tbaa !28
  %62 = icmp ne ptr %61, null
  br i1 %62, label %63, label %75

63:                                               ; preds = %56
  %64 = load ptr, ptr %14, align 8, !tbaa !11
  %65 = getelementptr inbounds nuw %struct.sentinelRedisInstance, ptr %64, i32 0, i32 35
  %66 = load i64, ptr %65, align 8, !tbaa !191
  %67 = load i64, ptr getelementptr inbounds nuw (%struct.sentinelState, ptr @sentinel, i32 0, i32 1), align 8, !tbaa !63
  %68 = icmp eq i64 %66, %67
  br i1 %68, label %69, label %75

69:                                               ; preds = %63
  %70 = load ptr, ptr %5, align 8, !tbaa !5
  %71 = load ptr, ptr %14, align 8, !tbaa !11
  %72 = getelementptr inbounds nuw %struct.sentinelRedisInstance, ptr %71, i32 0, i32 34
  %73 = load ptr, ptr %72, align 8, !tbaa !28
  %74 = call i32 @sentinelLeaderIncr(ptr noundef %70, ptr noundef %73)
  br label %75

75:                                               ; preds = %69, %63, %56
  call void @llvm.lifetime.end.p0(i64 8, ptr %14) #16
  br label %52, !llvm.loop !322

76:                                               ; preds = %52
  %77 = load ptr, ptr %6, align 8, !tbaa !87
  call void @dictReleaseIterator(ptr noundef %77)
  %78 = load ptr, ptr %5, align 8, !tbaa !5
  %79 = call ptr @dictGetIterator(ptr noundef %78)
  store ptr %79, ptr %6, align 8, !tbaa !87
  br label %80

80:                                               ; preds = %94, %76
  %81 = load ptr, ptr %6, align 8, !tbaa !87
  %82 = call ptr @dictNext(ptr noundef %81)
  store ptr %82, ptr %7, align 8, !tbaa !89
  %83 = icmp ne ptr %82, null
  br i1 %83, label %84, label %95

84:                                               ; preds = %80
  call void @llvm.lifetime.start.p0(i64 8, ptr %15) #16
  %85 = load ptr, ptr %7, align 8, !tbaa !89
  %86 = call i64 @dictGetUnsignedIntegerVal(ptr noundef %85)
  store i64 %86, ptr %15, align 8, !tbaa !205
  %87 = load i64, ptr %15, align 8, !tbaa !205
  %88 = load i64, ptr %13, align 8, !tbaa !205
  %89 = icmp ugt i64 %87, %88
  br i1 %89, label %90, label %94

90:                                               ; preds = %84
  %91 = load i64, ptr %15, align 8, !tbaa !205
  store i64 %91, ptr %13, align 8, !tbaa !205
  %92 = load ptr, ptr %7, align 8, !tbaa !89
  %93 = call ptr @dictGetKey(ptr noundef %92)
  store ptr %93, ptr %11, align 8, !tbaa !93
  br label %94

94:                                               ; preds = %90, %84
  call void @llvm.lifetime.end.p0(i64 8, ptr %15) #16
  br label %80, !llvm.loop !323

95:                                               ; preds = %80
  %96 = load ptr, ptr %6, align 8, !tbaa !87
  call void @dictReleaseIterator(ptr noundef %96)
  %97 = load ptr, ptr %11, align 8, !tbaa !93
  %98 = icmp ne ptr %97, null
  br i1 %98, label %99, label %104

99:                                               ; preds = %95
  %100 = load ptr, ptr %3, align 8, !tbaa !11
  %101 = load i64, ptr %4, align 8, !tbaa !205
  %102 = load ptr, ptr %11, align 8, !tbaa !93
  %103 = call ptr @sentinelVoteLeader(ptr noundef %100, i64 noundef %101, ptr noundef %102, ptr noundef %12)
  store ptr %103, ptr %10, align 8, !tbaa !93
  br label %108

104:                                              ; preds = %95
  %105 = load ptr, ptr %3, align 8, !tbaa !11
  %106 = load i64, ptr %4, align 8, !tbaa !205
  %107 = call ptr @sentinelVoteLeader(ptr noundef %105, i64 noundef %106, ptr noundef @sentinel, ptr noundef %12)
  store ptr %107, ptr %10, align 8, !tbaa !93
  br label %108

108:                                              ; preds = %104, %99
  %109 = load ptr, ptr %10, align 8, !tbaa !93
  %110 = icmp ne ptr %109, null
  br i1 %110, label %111, label %127

111:                                              ; preds = %108
  %112 = load i64, ptr %12, align 8, !tbaa !205
  %113 = load i64, ptr %4, align 8, !tbaa !205
  %114 = icmp eq i64 %112, %113
  br i1 %114, label %115, label %127

115:                                              ; preds = %111
  call void @llvm.lifetime.start.p0(i64 8, ptr %16) #16
  %116 = load ptr, ptr %5, align 8, !tbaa !5
  %117 = load ptr, ptr %10, align 8, !tbaa !93
  %118 = call i32 @sentinelLeaderIncr(ptr noundef %116, ptr noundef %117)
  %119 = sext i32 %118 to i64
  store i64 %119, ptr %16, align 8, !tbaa !205
  %120 = load i64, ptr %16, align 8, !tbaa !205
  %121 = load i64, ptr %13, align 8, !tbaa !205
  %122 = icmp ugt i64 %120, %121
  br i1 %122, label %123, label %126

123:                                              ; preds = %115
  %124 = load i64, ptr %16, align 8, !tbaa !205
  store i64 %124, ptr %13, align 8, !tbaa !205
  %125 = load ptr, ptr %10, align 8, !tbaa !93
  store ptr %125, ptr %11, align 8, !tbaa !93
  br label %126

126:                                              ; preds = %123, %115
  call void @llvm.lifetime.end.p0(i64 8, ptr %16) #16
  br label %127

127:                                              ; preds = %126, %111, %108
  %128 = load i32, ptr %8, align 4, !tbaa !82
  %129 = udiv i32 %128, 2
  %130 = add i32 %129, 1
  store i32 %130, ptr %9, align 4, !tbaa !82
  %131 = load ptr, ptr %11, align 8, !tbaa !93
  %132 = icmp ne ptr %131, null
  br i1 %132, label %133, label %146

133:                                              ; preds = %127
  %134 = load i64, ptr %13, align 8, !tbaa !205
  %135 = load i32, ptr %9, align 4, !tbaa !82
  %136 = zext i32 %135 to i64
  %137 = icmp ult i64 %134, %136
  br i1 %137, label %145, label %138

138:                                              ; preds = %133
  %139 = load i64, ptr %13, align 8, !tbaa !205
  %140 = load ptr, ptr %3, align 8, !tbaa !11
  %141 = getelementptr inbounds nuw %struct.sentinelRedisInstance, ptr %140, i32 0, i32 21
  %142 = load i32, ptr %141, align 8, !tbaa !91
  %143 = zext i32 %142 to i64
  %144 = icmp ult i64 %139, %143
  br i1 %144, label %145, label %146

145:                                              ; preds = %138, %133
  store ptr null, ptr %11, align 8, !tbaa !93
  br label %146

146:                                              ; preds = %145, %138, %127
  %147 = load ptr, ptr %11, align 8, !tbaa !93
  %148 = icmp ne ptr %147, null
  br i1 %148, label %149, label %152

149:                                              ; preds = %146
  %150 = load ptr, ptr %11, align 8, !tbaa !93
  %151 = call ptr @sdsnew(ptr noundef %150)
  br label %153

152:                                              ; preds = %146
  br label %153

153:                                              ; preds = %152, %149
  %154 = phi ptr [ %151, %149 ], [ null, %152 ]
  store ptr %154, ptr %11, align 8, !tbaa !93
  %155 = load ptr, ptr %10, align 8, !tbaa !93
  call void @sdsfree(ptr noundef %155)
  %156 = load ptr, ptr %5, align 8, !tbaa !5
  call void @dictRelease(ptr noundef %156)
  %157 = load ptr, ptr %11, align 8, !tbaa !93
  call void @llvm.lifetime.end.p0(i64 8, ptr %13) #16
  call void @llvm.lifetime.end.p0(i64 8, ptr %12) #16
  call void @llvm.lifetime.end.p0(i64 8, ptr %11) #16
  call void @llvm.lifetime.end.p0(i64 8, ptr %10) #16
  call void @llvm.lifetime.end.p0(i64 4, ptr %9) #16
  call void @llvm.lifetime.end.p0(i64 4, ptr %8) #16
  call void @llvm.lifetime.end.p0(i64 8, ptr %7) #16
  call void @llvm.lifetime.end.p0(i64 8, ptr %6) #16
  call void @llvm.lifetime.end.p0(i64 8, ptr %5) #16
  ret ptr %157
}