; Function Attrs: nounwind uwtable
define dso_local ptr @sentinelGetLeader(ptr noundef captures(address_is_null) %0, i64 noundef %1) local_unnamed_addr #0 {
  %3 = alloca ptr, align 8
  %4 = alloca ptr, align 8
  %5 = alloca i64, align 8
  call void @llvm.lifetime.start.p0(i64 8, ptr nonnull %5) #30
  %6 = load i32, ptr %0, align 8, !tbaa !34
  %7 = and i32 %6, 80
  %.not = icmp eq i32 %7, 0
  br i1 %.not, label %8, label %9, !prof !144

8:                                                ; preds = %2
  tail call void @_serverAssert(ptr noundef nonnull @.str.416, ptr noundef nonnull @.str.21, i32 noundef 4794) #30
  tail call void @abort() #35
  unreachable

9:                                                ; preds = %2
  %10 = tail call ptr @dictCreate(ptr noundef nonnull @leaderVotesDictType) #30
  %11 = getelementptr inbounds nuw i8, ptr %0, i64 152
  %12 = load ptr, ptr %11, align 8, !tbaa !5
  %13 = getelementptr inbounds nuw i8, ptr %12, i64 24
  %14 = load i64, ptr %13, align 8, !tbaa !171
  %15 = getelementptr inbounds nuw i8, ptr %12, i64 32
  %16 = load i64, ptr %15, align 8, !tbaa !171
  %17 = add i64 %16, %14
  %18 = trunc i64 %17 to i32
  %19 = add i32 %18, 1
  %20 = tail call ptr @dictGetIterator(ptr noundef %12) #30
  %21 = tail call ptr @dictNext(ptr noundef %20) #30
  %.not5374 = icmp eq ptr %21, null
  br i1 %.not5374, label %._crit_edge, label %.lr.ph

.lr.ph:                                           ; preds = %9, %41
  %22 = phi ptr [ %42, %41 ], [ %21, %9 ]
  %23 = call ptr @dictGetVal(ptr noundef nonnull %22) #30
  %24 = getelementptr inbounds nuw i8, ptr %23, i64 248
  %25 = load ptr, ptr %24, align 8, !tbaa !25
  %.not59 = icmp eq ptr %25, null
  br i1 %.not59, label %41, label %26

26:                                               ; preds = %.lr.ph
  %27 = getelementptr inbounds nuw i8, ptr %23, i64 256
  %28 = load i64, ptr %27, align 8, !tbaa !197
  %29 = load i64, ptr getelementptr inbounds nuw (i8, ptr @sentinel, i64 48), align 8, !tbaa !63
  %30 = icmp eq i64 %28, %29
  br i1 %30, label %31, label %41

31:                                               ; preds = %26
  call void @llvm.lifetime.start.p0(i64 8, ptr nonnull %4) #30
  %32 = call ptr @dictAddRaw(ptr noundef %10, ptr noundef nonnull %25, ptr noundef nonnull %4) #30
  %33 = load ptr, ptr %4, align 8, !tbaa !288
  %.not.i = icmp eq ptr %33, null
  br i1 %.not.i, label %38, label %34

34:                                               ; preds = %31
  %35 = call i64 @dictGetUnsignedIntegerVal(ptr noundef nonnull %33) #30
  %36 = load ptr, ptr %4, align 8, !tbaa !288
  %37 = add i64 %35, 1
  call void @dictSetUnsignedIntegerVal(ptr noundef %36, i64 noundef %37) #30
  br label %sentinelLeaderIncr.exit

38:                                               ; preds = %31
  %.not8.i = icmp eq ptr %32, null
  br i1 %.not8.i, label %39, label %40, !prof !144

39:                                               ; preds = %38
  call void @_serverAssert(ptr noundef nonnull @.str.415, ptr noundef nonnull @.str.21, i32 noundef 4772) #30
  call void @abort() #35
  unreachable

40:                                               ; preds = %38
  call void @dictSetUnsignedIntegerVal(ptr noundef nonnull %32, i64 noundef 1) #30
  br label %sentinelLeaderIncr.exit

sentinelLeaderIncr.exit:                          ; preds = %34, %40
  call void @llvm.lifetime.end.p0(i64 8, ptr nonnull %4) #30
  br label %41

41:                                               ; preds = %sentinelLeaderIncr.exit, %26, %.lr.ph
  %42 = call ptr @dictNext(ptr noundef %20) #30
  %.not53 = icmp eq ptr %42, null
  br i1 %.not53, label %._crit_edge, label %.lr.ph, !llvm.loop !289

._crit_edge:                                      ; preds = %41, %9
  call void @dictReleaseIterator(ptr noundef %20) #30
  %43 = call ptr @dictGetIterator(ptr noundef %10) #30
  %44 = call ptr @dictNext(ptr noundef %43) #30
  %.not5475 = icmp eq ptr %44, null
  br i1 %.not5475, label %._crit_edge80.thread, label %.lr.ph79

._crit_edge80.thread:                             ; preds = %._crit_edge
  call void @dictReleaseIterator(ptr noundef %43) #30
  br label %53

.lr.ph79:                                         ; preds = %._crit_edge, %50
  %45 = phi ptr [ %51, %50 ], [ %44, %._crit_edge ]
  %.077 = phi i64 [ %.1, %50 ], [ 0, %._crit_edge ]
  %.04376 = phi ptr [ %.144, %50 ], [ null, %._crit_edge ]
  %46 = call i64 @dictGetUnsignedIntegerVal(ptr noundef nonnull %45) #30
  %47 = icmp ugt i64 %46, %.077
  br i1 %47, label %48, label %50

48:                                               ; preds = %.lr.ph79
  %49 = call ptr @dictGetKey(ptr noundef nonnull %45) #30
  br label %50

50:                                               ; preds = %48, %.lr.ph79
  %.144 = phi ptr [ %49, %48 ], [ %.04376, %.lr.ph79 ]
  %.1 = phi i64 [ %46, %48 ], [ %.077, %.lr.ph79 ]
  %51 = call ptr @dictNext(ptr noundef %43) #30
  %.not54 = icmp eq ptr %51, null
  br i1 %.not54, label %._crit_edge80, label %.lr.ph79, !llvm.loop !290

._crit_edge80:                                    ; preds = %50
  call void @dictReleaseIterator(ptr noundef %43) #30
  %.not55 = icmp eq ptr %.144, null
  br i1 %.not55, label %52, label %53

52:                                               ; preds = %._crit_edge80
  br label %53

53:                                               ; preds = %._crit_edge80.thread, %._crit_edge80, %52
  %sentinel.sink = phi ptr [ %.144, %._crit_edge80 ], [ @sentinel, %._crit_edge80.thread ], [ @sentinel, %52 ]
  %.not5589 = phi i1 [ false, %._crit_edge80 ], [ true, %._crit_edge80.thread ], [ true, %52 ]
  %.0.lcssa87 = phi i64 [ %.1, %._crit_edge80 ], [ 0, %._crit_edge80.thread ], [ %.1, %52 ]
  %.043.lcssa85 = phi ptr [ %.144, %._crit_edge80 ], [ null, %._crit_edge80.thread ], [ null, %52 ]
  %54 = call ptr @sentinelVoteLeader(ptr noundef nonnull %0, i64 noundef %1, ptr noundef nonnull %sentinel.sink, ptr noundef nonnull %5)
  %.not56 = icmp ne ptr %54, null
  %55 = load i64, ptr %5, align 8
  %56 = icmp eq i64 %55, %1
  %or.cond = select i1 %.not56, i1 %56, i1 false
  br i1 %or.cond, label %57, label %69

57:                                               ; preds = %53
  call void @llvm.lifetime.start.p0(i64 8, ptr nonnull %3) #30
  %58 = call ptr @dictAddRaw(ptr noundef %10, ptr noundef nonnull %54, ptr noundef nonnull %3) #30
  %59 = load ptr, ptr %3, align 8, !tbaa !288
  %.not.i62 = icmp eq ptr %59, null
  br i1 %.not.i62, label %65, label %60

60:                                               ; preds = %57
  %61 = call i64 @dictGetUnsignedIntegerVal(ptr noundef nonnull %59) #30
  %62 = load ptr, ptr %3, align 8, !tbaa !288
  %63 = add i64 %61, 1
  call void @dictSetUnsignedIntegerVal(ptr noundef %62, i64 noundef %63) #30
  %sext = shl i64 %63, 32
  %64 = ashr exact i64 %sext, 32
  br label %sentinelLeaderIncr.exit65

65:                                               ; preds = %57
  %.not8.i64 = icmp eq ptr %58, null
  br i1 %.not8.i64, label %66, label %67, !prof !144

66:                                               ; preds = %65
  call void @_serverAssert(ptr noundef nonnull @.str.415, ptr noundef nonnull @.str.21, i32 noundef 4772) #30
  call void @abort() #35
  unreachable

67:                                               ; preds = %65
  call void @dictSetUnsignedIntegerVal(ptr noundef nonnull %58, i64 noundef 1) #30
  br label %sentinelLeaderIncr.exit65

sentinelLeaderIncr.exit65:                        ; preds = %60, %67
  %.0.i63 = phi i64 [ %64, %60 ], [ 1, %67 ]
  call void @llvm.lifetime.end.p0(i64 8, ptr nonnull %3) #30
  %68 = icmp uge i64 %.0.lcssa87, %.0.i63
  %brmerge.not = and i1 %68, %.not5589
  %.0.i63.mux = call i64 @llvm.umax.i64(i64 %.0.lcssa87, i64 %.0.i63)
  %.mux = select i1 %68, ptr %.043.lcssa85, ptr %54
  br i1 %brmerge.not, label %.thread71, label %.thread

69:                                               ; preds = %53
  br i1 %.not5589, label %.thread71, label %.thread

.thread:                                          ; preds = %sentinelLeaderIncr.exit65, %69
  %.270 = phi i64 [ %.0.lcssa87, %69 ], [ %.0.i63.mux, %sentinelLeaderIncr.exit65 ]
  %.24569 = phi ptr [ %.043.lcssa85, %69 ], [ %.mux, %sentinelLeaderIncr.exit65 ]
  %70 = lshr i32 %19, 1
  %71 = add nuw i32 %70, 1
  %72 = zext i32 %71 to i64
  %73 = icmp ult i64 %.270, %72
  br i1 %73, label %.thread71, label %74

74:                                               ; preds = %.thread
  %75 = getelementptr inbounds nuw i8, ptr %0, i64 168
  %76 = load i32, ptr %75, align 8, !tbaa !83
  %77 = zext i32 %76 to i64
  %78 = icmp ult i64 %.270, %77
  br i1 %78, label %.thread71, label %79

79:                                               ; preds = %74
  %80 = call ptr @sdsnew(ptr noundef nonnull %.24569) #30
  br label %.thread71

.thread71:                                        ; preds = %sentinelLeaderIncr.exit65, %.thread, %74, %69, %79
  %81 = phi ptr [ %80, %79 ], [ null, %69 ], [ null, %74 ], [ null, %.thread ], [ null, %sentinelLeaderIncr.exit65 ]
  call void @sdsfree(ptr noundef %54) #30
  call void @dictRelease(ptr noundef %10) #30
  call void @llvm.lifetime.end.p0(i64 8, ptr nonnull %5) #30
  ret ptr %81
}